target datalayout = "e-m:e-p270:32:32-p271:32:32-p272:64:64-i64:64-i128:128-f80:128-n8:16:32:64-S128"
target triple = "x86_64-pc-linux-gnu"

%struct.wscbor_chunk_t = type { ptr, i32, i32, i32, ptr, ptr, i32, i8, i64 }
%struct._wscbor_chunk_priv_t = type { ptr, ptr, ptr }
%struct.wscbor_expert_add_t = type { ptr, ptr }

; Function Attrs: null_pointer_is_valid sspstrong uwtable
define i64 @wscbor_chunk_mark_errors(ptr noundef %0, ptr noundef %1, ptr noundef %2) #0 {
  %4 = alloca ptr, align 8
  %5 = alloca ptr, align 8
  %6 = alloca ptr, align 8
  %7 = alloca %struct.wscbor_expert_add_t, align 8
  store ptr %0, ptr %4, align 8
  store ptr %1, ptr %5, align 8
  store ptr %2, ptr %6, align 8
  call void @llvm.lifetime.start.p0(i64 16, ptr %7) #7
  %8 = getelementptr inbounds nuw %struct.wscbor_expert_add_t, ptr %7, i32 0, i32 0
  %9 = load ptr, ptr %4, align 8
  store ptr %9, ptr %8, align 8
  %10 = getelementptr inbounds nuw %struct.wscbor_expert_add_t, ptr %7, i32 0, i32 1
  %11 = load ptr, ptr %5, align 8
  store ptr %11, ptr %10, align 8
  %12 = load ptr, ptr %6, align 8
  %13 = getelementptr inbounds nuw %struct.wscbor_chunk_t, ptr %12, i32 0, i32 4
  %14 = load ptr, ptr %13, align 8
  call void @wmem_list_foreach(ptr noundef %14, ptr noundef @wscbor_expert_add, ptr noundef %7)
  %15 = load ptr, ptr %6, align 8
  %16 = getelementptr inbounds nuw %struct.wscbor_chunk_t, ptr %15, i32 0, i32 0
  %17 = load ptr, ptr %16, align 8
  %18 = getelementptr inbounds nuw %struct._wscbor_chunk_priv_t, ptr %17, i32 0, i32 1
  %19 = load ptr, ptr %18, align 8
  call void @wmem_list_foreach(ptr noundef %19, ptr noundef @wscbor_expert_add, ptr noundef %7)
  %20 = load ptr, ptr %6, align 8
  %21 = getelementptr inbounds nuw %struct.wscbor_chunk_t, ptr %20, i32 0, i32 4
  %22 = load ptr, ptr %21, align 8
  %23 = call i32 @wmem_list_count(ptr noundef %22)
  %24 = zext i32 %23 to i64
  call void @llvm.lifetime.end.p0(i64 16, ptr %7) #7
  ret i64 %24
}

; Function Attrs: null_pointer_is_valid sspstrong uwtable
define ptr @proto_tree_add_cbor_bstr(ptr noundef %0, i32 noundef %1, ptr noundef %2, ptr noundef %3, ptr noundef %4) #0 {
  %6 = alloca ptr, align 8
  %7 = alloca i32, align 4
  %8 = alloca ptr, align 8
  %9 = alloca ptr, align 8
  %10 = alloca ptr, align 8
  %11 = alloca ptr, align 8
  store ptr %0, ptr %6, align 8
  store i32 %1, ptr %7, align 4
  store ptr %2, ptr %8, align 8
  store ptr %3, ptr %9, align 8
  store ptr %4, ptr %10, align 8
  call void @llvm.lifetime.start.p0(i64 8, ptr %11) #7
  %12 = load ptr, ptr %10, align 8
  %13 = getelementptr inbounds nuw %struct.wscbor_chunk_t, ptr %12, i32 0, i32 0
  %14 = load ptr, ptr %13, align 8
  %15 = getelementptr inbounds nuw %struct._wscbor_chunk_priv_t, ptr %14, i32 0, i32 2
  %16 = load ptr, ptr %15, align 8
  %17 = icmp ne ptr %16, null
  br i1 %17, label %18, label %33

18:                                               ; preds = %5
  %19 = load ptr, ptr %6, align 8
  %20 = load i32, ptr %7, align 4
  %21 = load ptr, ptr %10, align 8
  %22 = getelementptr inbounds nuw %struct.wscbor_chunk_t, ptr %21, i32 0, i32 0
  %23 = load ptr, ptr %22, align 8
  %24 = getelementptr inbounds nuw %struct._wscbor_chunk_priv_t, ptr %23, i32 0, i32 2
  %25 = load ptr, ptr %24, align 8
  %26 = load ptr, ptr %10, align 8
  %27 = getelementptr inbounds nuw %struct.wscbor_chunk_t, ptr %26, i32 0, i32 0
  %28 = load ptr, ptr %27, align 8
  %29 = getelementptr inbounds nuw %struct._wscbor_chunk_priv_t, ptr %28, i32 0, i32 2
  %30 = load ptr, ptr %29, align 8
  %31 = call i32 @tvb_reported_length(ptr noundef %30)
  %32 = call ptr @proto_tree_add_item(ptr noundef %19, i32 noundef %20, ptr noundef %25, i32 noundef 0, i32 noundef %31, i32 noundef 0)
  store ptr %32, ptr %11, align 8
  br label %41

33:                                               ; preds = %5
  %34 = load ptr, ptr %6, align 8
  %35 = load i32, ptr %7, align 4
  %36 = load ptr, ptr %9, align 8
  %37 = load ptr, ptr %10, align 8
  %38 = getelementptr inbounds nuw %struct.wscbor_chunk_t, ptr %37, i32 0, i32 1
  %39 = load i32, ptr %38, align 8
  %40 = call ptr @proto_tree_add_item(ptr noundef %34, i32 noundef %35, ptr noundef %36, i32 noundef %39, i32 noundef 0, i32 noundef 0)
  store ptr %40, ptr %11, align 8
  br label %41

41:                                               ; preds = %33, %18
  %42 = load ptr, ptr %8, align 8
  %43 = load ptr, ptr %11, align 8
  %44 = load ptr, ptr %10, align 8
  %45 = call i64 @wscbor_chunk_mark_errors(ptr noundef %42, ptr noundef %43, ptr noundef %44)
  %46 = load ptr, ptr %11, align 8
  call void @llvm.lifetime.end.p0(i64 8, ptr %11) #7
  ret ptr %46
}