; Function Attrs: null_pointer_is_valid sspstrong uwtable
define ptr @proto_tree_add_cbor_bstr(ptr noundef %0, i32 noundef %1, ptr noundef %2, ptr noundef %3, ptr noundef readonly captures(none) %4) local_unnamed_addr #0 {
  %6 = alloca %struct.wscbor_expert_add_t, align 8
  %7 = load ptr, ptr %4, align 8
  %8 = getelementptr inbounds nuw i8, ptr %7, i64 16
  %9 = load ptr, ptr %8, align 8
  %.not = icmp eq ptr %9, null
  br i1 %.not, label %13, label %10

10:                                               ; preds = %5
  %11 = tail call i32 @tvb_reported_length(ptr noundef nonnull %9)
  %12 = tail call ptr @proto_tree_add_item(ptr noundef %0, i32 noundef %1, ptr noundef nonnull %9, i32 noundef 0, i32 noundef %11, i32 noundef 0)
  br label %17

13:                                               ; preds = %5
  %14 = getelementptr inbounds nuw i8, ptr %4, i64 8
  %15 = load i32, ptr %14, align 8
  %16 = tail call ptr @proto_tree_add_item(ptr noundef %0, i32 noundef %1, ptr noundef %3, i32 noundef %15, i32 noundef 0, i32 noundef 0)
  br label %17

17:                                               ; preds = %13, %10
  %.0 = phi ptr [ %12, %10 ], [ %16, %13 ]
  call void @llvm.lifetime.start.p0(i64 16, ptr nonnull %6) #9
  store ptr %2, ptr %6, align 8
  %18 = getelementptr inbounds nuw i8, ptr %6, i64 8
  store ptr %.0, ptr %18, align 8
  %19 = getelementptr inbounds nuw i8, ptr %4, i64 24
  %20 = load ptr, ptr %19, align 8
  call void @wmem_list_foreach(ptr noundef %20, ptr noundef nonnull @wscbor_expert_add, ptr noundef nonnull %6)
  %21 = load ptr, ptr %4, align 8
  %22 = getelementptr inbounds nuw i8, ptr %21, i64 8
  %23 = load ptr, ptr %22, align 8
  call void @wmem_list_foreach(ptr noundef %23, ptr noundef nonnull @wscbor_expert_add, ptr noundef nonnull %6)
  %24 = load ptr, ptr %19, align 8
  %25 = call i32 @wmem_list_count(ptr noundef %24)
  call void @llvm.lifetime.end.p0(i64 16, ptr nonnull %6) #9
  ret ptr %.0
}